target datalayout = "e-m:e-p270:32:32-p271:32:32-p272:64:64-i64:64-i128:128-f80:128-n8:16:32:64-S128"
target triple = "x86_64-pc-linux-gnu"

%"class.llvm::SmallPtrSetImplBase.base" = type <{ ptr, ptr, i32, i32, i32 }>
%"class.llvm::MemorySSA" = type <{ ptr, ptr, ptr, ptr, %"class.llvm::DenseMap.44", %"class.llvm::DenseMap.47", %"class.llvm::DenseMap.50", %"class.std::unique_ptr", %"class.llvm::SmallPtrSet.55", %"class.llvm::DenseMap.58", %"class.std::unique_ptr.61", %"class.std::unique_ptr.69", %"class.std::unique_ptr.77", i32, i8, [3 x i8] }>
%"class.llvm::DenseMap.44" = type <{ ptr, i32, i32, i32, [4 x i8] }>
%"class.llvm::DenseMap.47" = type <{ ptr, i32, i32, i32, [4 x i8] }>
%"class.llvm::DenseMap.50" = type <{ ptr, i32, i32, i32, [4 x i8] }>
%"class.std::unique_ptr" = type { %"struct.std::__uniq_ptr_data" }
%"struct.std::__uniq_ptr_data" = type { %"class.std::__uniq_ptr_impl" }
%"class.std::__uniq_ptr_impl" = type { %"class.std::tuple" }
%"class.std::tuple" = type { %"struct.std::_Tuple_impl" }
%"struct.std::_Tuple_impl" = type { %"struct.std::_Head_base.54" }
%"struct.std::_Head_base.54" = type { ptr }
%"class.llvm::SmallPtrSet.55" = type { %"class.llvm::SmallPtrSetImpl.base.57", [16 x ptr] }
%"class.llvm::SmallPtrSetImpl.base.57" = type { %"class.llvm::SmallPtrSetImplBase.base" }
%"class.llvm::DenseMap.58" = type <{ ptr, i32, i32, i32, [4 x i8] }>
%"class.std::unique_ptr.61" = type { %"struct.std::__uniq_ptr_data.62" }
%"struct.std::__uniq_ptr_data.62" = type { %"class.std::__uniq_ptr_impl.63" }
%"class.std::__uniq_ptr_impl.63" = type { %"class.std::tuple.64" }
%"class.std::tuple.64" = type { %"struct.std::_Tuple_impl.65" }
%"struct.std::_Tuple_impl.65" = type { %"struct.std::_Head_base.68" }
%"struct.std::_Head_base.68" = type { ptr }
%"class.std::unique_ptr.69" = type { %"struct.std::__uniq_ptr_data.70" }
%"struct.std::__uniq_ptr_data.70" = type { %"class.std::__uniq_ptr_impl.71" }
%"class.std::__uniq_ptr_impl.71" = type { %"class.std::tuple.72" }
%"class.std::tuple.72" = type { %"struct.std::_Tuple_impl.73" }
%"struct.std::_Tuple_impl.73" = type { %"struct.std::_Head_base.76" }
%"struct.std::_Head_base.76" = type { ptr }
%"class.std::unique_ptr.77" = type { %"struct.std::__uniq_ptr_data.78" }
%"struct.std::__uniq_ptr_data.78" = type { %"class.std::__uniq_ptr_impl.79" }
%"class.std::__uniq_ptr_impl.79" = type { %"class.std::tuple.80" }
%"class.std::tuple.80" = type { %"struct.std::_Tuple_impl.81" }
%"struct.std::_Tuple_impl.81" = type { %"struct.std::_Head_base.84" }
%"struct.std::_Head_base.84" = type { ptr }
%"class.llvm::Value" = type { i8, i8, i16, i32, ptr, ptr }
%"class.llvm::ilist_node_base" = type { %"class.llvm::ilist_detail::node_base_prevnext" }
%"class.llvm::ilist_detail::node_base_prevnext" = type { ptr, ptr }
%"class.llvm::ilist_node_impl.133" = type { %"class.llvm::ilist_node_base" }
%"class.(anonymous namespace)::MemorySSAAnnotatedWriter" = type { %"class.llvm::AssemblyAnnotationWriter", ptr }
%"class.llvm::AssemblyAnnotationWriter" = type { ptr }
%"class.llvm::BasicBlock" = type { %"class.llvm::Value", %"class.llvm::ilist_node_with_parent", i8, i32, %"class.llvm::SymbolTableList.215", ptr }
%"class.llvm::ilist_node_with_parent" = type { %"class.llvm::ilist_node.214" }
%"class.llvm::ilist_node.214" = type { %"class.llvm::ilist_node_impl.133" }
%"class.llvm::SymbolTableList.215" = type { %"class.llvm::iplist_impl.216" }
%"class.llvm::iplist_impl.216" = type { %"class.llvm::simple_ilist.219" }
%"class.llvm::simple_ilist.219" = type { %"class.llvm::ilist_sentinel.222" }
%"class.llvm::ilist_sentinel.222" = type { %"class.llvm::ilist_node_impl.223" }
%"class.llvm::ilist_node_impl.223" = type { %"class.llvm::ilist_node_base.224" }
%"class.llvm::ilist_node_base.224" = type { %"class.llvm::ilist_detail::node_base_prevnext.225", %"class.llvm::ilist_detail::node_base_parent.226" }
%"class.llvm::ilist_detail::node_base_prevnext.225" = type { ptr, ptr }
%"class.llvm::ilist_detail::node_base_parent.226" = type { ptr }

@_ZTVN4llvm24AssemblyAnnotationWriterE = external unnamed_addr constant { [9 x ptr] }, align 8

; Function Attrs: mustprogress nounwind uwtable
define linkonce_odr hidden void @_ZN4llvm24AssemblyAnnotationWriterC2Ev(ptr noundef nonnull align 8 dereferenceable(8) %0) unnamed_addr #1 comdat align 2 {
  %2 = alloca ptr, align 8
  store ptr %0, ptr %2, align 8
  %3 = load ptr, ptr %2, align 8
  store ptr getelementptr inbounds inrange(-16, 56) ({ [9 x ptr] }, ptr @_ZTVN4llvm24AssemblyAnnotationWriterE, i32 0, i32 0, i32 2), ptr %3, align 8
  ret void
}

; Function Attrs: mustprogress nounwind uwtable
define internal void @_ZN12_GLOBAL__N_124MemorySSAAnnotatedWriterD2Ev(ptr noundef nonnull align 8 dereferenceable(16) %0) unnamed_addr #1 align 2 {
  %2 = alloca ptr, align 8
  store ptr %0, ptr %2, align 8
  %3 = load ptr, ptr %2, align 8
  call void @_ZN4llvm24AssemblyAnnotationWriterD2Ev(ptr noundef nonnull align 8 dereferenceable(8) %3) #2
  ret void
}

; Function Attrs: mustprogress nounwind uwtable
define linkonce_odr hidden noundef ptr @_ZN4llvm10BasicBlock9getParentEv(ptr noundef nonnull align 8 dereferenceable(80) %0) #1 comdat align 2 {
  %2 = alloca ptr, align 8
  store ptr %0, ptr %2, align 8
  %3 = load ptr, ptr %2, align 8
  %4 = getelementptr inbounds nuw %"class.llvm::BasicBlock", ptr %3, i32 0, i32 5
  %5 = load ptr, ptr %4, align 8
  ret ptr %5
}

; Function Attrs: mustprogress nounwind uwtable
define internal void @_ZN12_GLOBAL__N_124MemorySSAAnnotatedWriterC2EPKN4llvm9MemorySSAE(ptr noundef nonnull align 8 dereferenceable(16) %0, ptr noundef %1) unnamed_addr #1 align 2 {
  %3 = alloca ptr, align 8
  %4 = alloca ptr, align 8
  store ptr %0, ptr %3, align 8
  store ptr %1, ptr %4, align 8
  %5 = load ptr, ptr %3, align 8
  call void @_ZN4llvm24AssemblyAnnotationWriterC2Ev(ptr noundef nonnull align 8 dereferenceable(8) %5) #2
  store ptr getelementptr inbounds inrange(-16, 56) ({ [9 x ptr] }, ptr @_ZTVN12_GLOBAL__N_124MemorySSAAnnotatedWriterE, i32 0, i32 0, i32 2), ptr %5, align 8
  %6 = getelementptr inbounds nuw %"class.(anonymous namespace)::MemorySSAAnnotatedWriter", ptr %5, i32 0, i32 1
  %7 = load ptr, ptr %4, align 8
  store ptr %7, ptr %6, align 8
  ret void
}

; Function Attrs: mustprogress nounwind uwtable
define dso_local void @_ZNK4llvm9MemorySSA5printERNS_11raw_ostreamE(ptr noundef nonnull align 8 dereferenceable(325) %0, ptr noundef nonnull align 8 dereferenceable(48) %1) #1 align 2 {
  %3 = alloca ptr, align 8
  %4 = alloca ptr, align 8
  %5 = alloca %"class.(anonymous namespace)::MemorySSAAnnotatedWriter", align 8
  %6 = alloca ptr, align 8
  store ptr %0, ptr %3, align 8
  store ptr %1, ptr %4, align 8
  %7 = load ptr, ptr %3, align 8
  call void @_ZN12_GLOBAL__N_124MemorySSAAnnotatedWriterC2EPKN4llvm9MemorySSAE(ptr noundef nonnull align 8 dereferenceable(16) %5, ptr noundef %7)
  %8 = getelementptr inbounds nuw %"class.llvm::MemorySSA", ptr %7, i32 0, i32 2
  %9 = load ptr, ptr %8, align 8
  store ptr %9, ptr %6, align 8
  %10 = getelementptr inbounds nuw %"class.llvm::MemorySSA", ptr %7, i32 0, i32 3
  %11 = load ptr, ptr %10, align 8
  %12 = icmp ne ptr %11, null
  br i1 %12, label %13, label %18

13:                                               ; preds = %2
  %14 = getelementptr inbounds nuw %"class.llvm::MemorySSA", ptr %7, i32 0, i32 3
  %15 = load ptr, ptr %14, align 8
  %16 = call noundef ptr @_ZNK4llvm8LoopBaseINS_10BasicBlockENS_4LoopEE9getHeaderEv(ptr noundef nonnull align 8 dereferenceable(152) %15)
  %17 = call noundef ptr @_ZN4llvm10BasicBlock9getParentEv(ptr noundef nonnull align 8 dereferenceable(80) %16)
  store ptr %17, ptr %6, align 8
  br label %18

18:                                               ; preds = %13, %2
  %19 = load ptr, ptr %6, align 8
  %20 = load ptr, ptr %4, align 8
  call void @_ZNK4llvm8Function5printERNS_11raw_ostreamEPNS_24AssemblyAnnotationWriterEbb(ptr noundef nonnull align 8 dereferenceable(136) %19, ptr noundef nonnull align 8 dereferenceable(48) %20, ptr noundef %5, i1 noundef zeroext false, i1 noundef zeroext false)
  call void @_ZN12_GLOBAL__N_124MemorySSAAnnotatedWriterD2Ev(ptr noundef nonnull align 8 dereferenceable(16) %5) #2
  ret void
}