; Function Attrs: mustprogress nounwind uwtable
define dso_local void @_ZNK4llvm9MemorySSA5printERNS_11raw_ostreamE(ptr noundef nonnull align 8 dereferenceable(325) %0, ptr noundef nonnull align 8 dereferenceable(48) %1) local_unnamed_addr #0 align 2 {
  %3 = alloca %"class.(anonymous namespace)::MemorySSAAnnotatedWriter", align 8
  store ptr getelementptr inbounds inrange(-16, 56) (i8, ptr @_ZTVN12_GLOBAL__N_124MemorySSAAnnotatedWriterE, i64 16), ptr %3, align 8
  %4 = getelementptr inbounds nuw i8, ptr %3, i64 8
  store ptr %0, ptr %4, align 8
  %5 = getelementptr inbounds nuw i8, ptr %0, i64 16
  %6 = getelementptr inbounds nuw i8, ptr %0, i64 24
  %7 = load ptr, ptr %6, align 8
  %.not = icmp eq ptr %7, null
  br i1 %.not, label %11, label %8

8:                                                ; preds = %2
  %9 = tail call noundef ptr @_ZNK4llvm8LoopBaseINS_10BasicBlockENS_4LoopEE9getHeaderEv(ptr noundef nonnull align 8 dereferenceable(152) %7) #25
  %10 = getelementptr inbounds nuw i8, ptr %9, i64 72
  br label %11

11:                                               ; preds = %8, %2
  %.0.in = phi ptr [ %10, %8 ], [ %5, %2 ]
  %.0 = load ptr, ptr %.0.in, align 8
  call void @_ZNK4llvm8Function5printERNS_11raw_ostreamEPNS_24AssemblyAnnotationWriterEbb(ptr noundef nonnull align 8 dereferenceable(136) %.0, ptr noundef nonnull align 8 dereferenceable(48) %1, ptr noundef nonnull %3, i1 noundef zeroext false, i1 noundef zeroext false) #25
  call void @_ZN4llvm24AssemblyAnnotationWriterD2Ev(ptr noundef nonnull align 8 dereferenceable(8) %3) #25
  ret void
}